; Function Attrs: mustprogress null_pointer_is_valid sspstrong uwtable
define void @_ZN13IOGraphDialog29on_actionGoToPacket_triggeredEv(ptr noundef align 8 dereferenceable_or_null(384) %0) local_unnamed_addr #2 align 2 {
  %2 = getelementptr inbounds nuw i8, ptr %0, i64 240
  %3 = load ptr, ptr %2, align 8
  %4 = getelementptr inbounds nuw i8, ptr %3, i64 16
  %5 = load i8, ptr %4, align 8, !range !12, !noundef !13
  %6 = trunc nuw i8 %5 to i1
  br i1 %6, label %7, label %15

7:                                                ; preds = %1
  %8 = getelementptr inbounds nuw i8, ptr %0, i64 80
  %9 = load i8, ptr %8, align 8, !range !12, !noundef !13
  %10 = trunc nuw i8 %9 to i1
  br i1 %10, label %15, label %11

11:                                               ; preds = %7
  %12 = getelementptr inbounds nuw i8, ptr %0, i64 248
  %13 = load i32, ptr %12, align 8
  %.not = icmp eq i32 %13, 0
  br i1 %.not, label %15, label %14

14:                                               ; preds = %11
  tail call void @_ZN13IOGraphDialog10goToPacketEi(ptr noundef align 8 dereferenceable_or_null(384) %0, i32 noundef %13)
  br label %15

15:                                               ; preds = %14, %11, %7, %1
  ret void
}